#include <math.h>
#include <stdio.h>
#include <stdlib.h>
#include <string.h>

int main(){
   int n;
   double s[101];
   int i;
   
   scanf("%d",&n);

   s[0]=1;
   s[1]=2;
   for(i=2;i<=n;i++){
	   s[i]=s[i-1]*2;
   }
		
   printf("%.0lf",s[n]);
   

	return 0;
}

