; ModuleID = '25/272.c'
source_filename = "25/272.c"
target datalayout = "e-m:e-p270:32:32-p271:32:32-p272:64:64-i64:64-f80:128-n8:16:32:64-S128"
target triple = "x86_64-pc-linux-gnu"

@.str = private unnamed_addr constant [3 x i8] c"%d\00", align 1
@.str.1 = private unnamed_addr constant [6 x i8] c"%.0lf\00", align 1

; Function Attrs: noinline nounwind uwtable
define dso_local i32 @main() #0 {
  %1 = alloca i32, align 4
  %2 = alloca i32, align 4
  %3 = alloca [101 x double], align 16
  %4 = alloca i32, align 4
  store i32 0, i32* %1, align 4
  %5 = call i32 (i8*, ...) @__isoc99_scanf(i8* getelementptr inbounds ([3 x i8], [3 x i8]* @.str, i64 0, i64 0), i32* %2)
  %6 = getelementptr inbounds [101 x double], [101 x double]* %3, i64 0, i64 0
  store double 1.000000e+00, double* %6, align 16
  %7 = getelementptr inbounds [101 x double], [101 x double]* %3, i64 0, i64 1
  store double 2.000000e+00, double* %7, align 8
  store i32 2, i32* %4, align 4
  br label %8

8:                                                ; preds = %22, %0
  %9 = load i32, i32* %4, align 4
  %10 = load i32, i32* %2, align 4
  %11 = icmp sle i32 %9, %10
  br i1 %11, label %12, label %25

12:                                               ; preds = %8
  %13 = load i32, i32* %4, align 4
  %14 = sub nsw i32 %13, 1
  %15 = sext i32 %14 to i64
  %16 = getelementptr inbounds [101 x double], [101 x double]* %3, i64 0, i64 %15
  %17 = load double, double* %16, align 8
  %18 = fmul double %17, 2.000000e+00
  %19 = load i32, i32* %4, align 4
  %20 = sext i32 %19 to i64
  %21 = getelementptr inbounds [101 x double], [101 x double]* %3, i64 0, i64 %20
  store double %18, double* %21, align 8
  br label %22

22:                                               ; preds = %12
  %23 = load i32, i32* %4, align 4
  %24 = add nsw i32 %23, 1
  store i32 %24, i32* %4, align 4
  br label %8

25:                                               ; preds = %8
  %26 = load i32, i32* %2, align 4
  %27 = sext i32 %26 to i64
  %28 = getelementptr inbounds [101 x double], [101 x double]* %3, i64 0, i64 %27
  %29 = load double, double* %28, align 8
  %30 = call i32 (i8*, ...) @printf(i8* getelementptr inbounds ([6 x i8], [6 x i8]* @.str.1, i64 0, i64 0), double %29)
  ret i32 0
}

declare dso_local i32 @__isoc99_scanf(i8*, ...) #1

declare dso_local i32 @printf(i8*, ...) #1


!llvm.module.flags = !{!0}
!llvm.ident = !{!1}

!0 = !{i32 1, !"wchar_size", i32 4}
!1 = !{!"clang version 10.0.0-4ubuntu1 "}
